; Function Attrs: nounwind uwtable
define ptr @l_Lean_Elab_FixedParamPerm_instantiateForall(ptr noundef %0, ptr noundef %1, ptr noundef %2, ptr noundef %3, ptr noundef %4, ptr noundef %5, ptr noundef %6, ptr noundef %7) local_unnamed_addr #1 {
  %9 = getelementptr i8, ptr %2, i64 8
  %.val = load i64, ptr %9, align 8, !tbaa !12
  %10 = shl i64 %.val, 1
  %11 = or disjoint i64 %10, 1
  %12 = inttoptr i64 %11 to ptr
  %13 = getelementptr i8, ptr %0, i64 8
  %.val.i = load i64, ptr %13, align 8, !tbaa !12
  %.mask.i = and i64 %.val.i, 9223372036854775807
  %.not.i39 = icmp eq i64 %.mask.i, 0
  br i1 %.not.i39, label %l_Lean_Elab_FixedParamPerm_numFixed.exit, label %lean_dec.exit.i

lean_dec.exit.i:                                  ; preds = %8
  %14 = tail call ptr @l_Array_foldrMUnsafe_fold___at_Lean_Elab_FixedParamPerm_numFixed___spec__1(ptr noundef nonnull readonly %0, i64 noundef %.mask.i, i64 noundef 0, ptr noundef nonnull inttoptr (i64 1 to ptr))
  br label %l_Lean_Elab_FixedParamPerm_numFixed.exit

l_Lean_Elab_FixedParamPerm_numFixed.exit:         ; preds = %lean_dec.exit.i, %8
  %.0.i40 = phi ptr [ %14, %lean_dec.exit.i ], [ inttoptr (i64 1 to ptr), %8 ]
  %15 = ptrtoint ptr %.0.i40 to i64
  %16 = and i64 %15, 1
  %.not = icmp eq i64 %16, 0
  br i1 %.not, label %18, label %lean_nat_eq.exit, !prof !14

lean_nat_eq.exit:                                 ; preds = %l_Lean_Elab_FixedParamPerm_numFixed.exit
  %17 = icmp eq ptr %.0.i40, %12
  br i1 %17, label %56, label %26

18:                                               ; preds = %l_Lean_Elab_FixedParamPerm_numFixed.exit
  %19 = tail call zeroext i1 @lean_nat_big_eq(ptr noundef nonnull %12, ptr noundef %.0.i40) #5
  %20 = load i32, ptr %.0.i40, align 4, !tbaa !4
  %21 = icmp sgt i32 %20, 1
  br i1 %21, label %22, label %24, !prof !11

22:                                               ; preds = %18
  %23 = add nsw i32 %20, -1
  store i32 %23, ptr %.0.i40, align 4, !tbaa !4
  br i1 %19, label %56, label %26

24:                                               ; preds = %18
  %.not.i = icmp eq i32 %20, 0
  br i1 %.not.i, label %lean_dec.exit29, label %25

25:                                               ; preds = %24
  tail call void @lean_dec_ref_cold(ptr noundef nonnull %.0.i40) #5
  br i1 %19, label %56, label %26

lean_dec.exit29:                                  ; preds = %24
  br i1 %19, label %56, label %26

26:                                               ; preds = %25, %22, %lean_nat_eq.exit, %lean_dec.exit29
  %27 = ptrtoint ptr %2 to i64
  %28 = and i64 %27, 1
  %.not42 = icmp eq i64 %28, 0
  br i1 %.not42, label %29, label %lean_dec.exit28

29:                                               ; preds = %26
  %30 = load i32, ptr %2, align 4, !tbaa !4
  %31 = icmp sgt i32 %30, 1
  br i1 %31, label %32, label %34, !prof !11

32:                                               ; preds = %29
  %33 = add nsw i32 %30, -1
  store i32 %33, ptr %2, align 4, !tbaa !4
  br label %lean_dec.exit28

34:                                               ; preds = %29
  %.not.i33 = icmp eq i32 %30, 0
  br i1 %.not.i33, label %lean_dec.exit28, label %35

35:                                               ; preds = %34
  tail call void @lean_dec_ref_cold(ptr noundef nonnull %2) #5
  br label %lean_dec.exit28

lean_dec.exit28:                                  ; preds = %35, %34, %32, %26
  %36 = ptrtoint ptr %1 to i64
  %37 = and i64 %36, 1
  %.not43 = icmp eq i64 %37, 0
  br i1 %.not43, label %38, label %lean_dec.exit27

38:                                               ; preds = %lean_dec.exit28
  %39 = load i32, ptr %1, align 4, !tbaa !4
  %40 = icmp sgt i32 %39, 1
  br i1 %40, label %41, label %43, !prof !11

41:                                               ; preds = %38
  %42 = add nsw i32 %39, -1
  store i32 %42, ptr %1, align 4, !tbaa !4
  br label %lean_dec.exit27

43:                                               ; preds = %38
  %.not.i35 = icmp eq i32 %39, 0
  br i1 %.not.i35, label %lean_dec.exit27, label %44

44:                                               ; preds = %43
  tail call void @lean_dec_ref_cold(ptr noundef nonnull %1) #5
  br label %lean_dec.exit27

lean_dec.exit27:                                  ; preds = %44, %43, %41, %lean_dec.exit28
  %45 = ptrtoint ptr %0 to i64
  %46 = and i64 %45, 1
  %.not44 = icmp eq i64 %46, 0
  br i1 %.not44, label %47, label %lean_dec.exit

47:                                               ; preds = %lean_dec.exit27
  %48 = load i32, ptr %0, align 4, !tbaa !4
  %49 = icmp sgt i32 %48, 1
  br i1 %49, label %50, label %52, !prof !11

50:                                               ; preds = %47
  %51 = add nsw i32 %48, -1
  store i32 %51, ptr %0, align 4, !tbaa !4
  br label %lean_dec.exit

52:                                               ; preds = %47
  %.not.i37 = icmp eq i32 %48, 0
  br i1 %.not.i37, label %lean_dec.exit, label %53

53:                                               ; preds = %52
  tail call void @lean_dec_ref_cold(ptr noundef nonnull %0) #5
  br label %lean_dec.exit

lean_dec.exit:                                    ; preds = %53, %52, %50, %lean_dec.exit27
  %54 = load ptr, ptr @l_Lean_Elab_FixedParamPerm_instantiateForall___closed__4, align 8, !tbaa !9
  %55 = tail call ptr @l_panic___at_Lean_Meta_whnfCore_go___spec__1(ptr noundef %54, ptr noundef %3, ptr noundef %4, ptr noundef %5, ptr noundef %6, ptr noundef %7) #5
  br label %59

56:                                               ; preds = %25, %22, %lean_nat_eq.exit, %lean_dec.exit29
  %57 = tail call ptr @lean_array_to_list(ptr noundef nonnull %0) #5
  %58 = tail call ptr @l_Lean_Elab_FixedParamPerm_instantiateForall_go(ptr noundef nonnull %2, ptr noundef %57, ptr noundef %1, ptr noundef %3, ptr noundef %4, ptr noundef %5, ptr noundef %6, ptr noundef %7)
  br label %59

59:                                               ; preds = %56, %lean_dec.exit
  %.0 = phi ptr [ %55, %lean_dec.exit ], [ %58, %56 ]
  ret ptr %.0
}